target datalayout = "e-m:e-p270:32:32-p271:32:32-p272:64:64-i64:64-i128:128-f80:128-n8:16:32:64-S128"
target triple = "x86_64-pc-linux-gnu"

%"class.std::unique_ptr" = type { %"struct.std::__uniq_ptr_data" }
%"struct.std::__uniq_ptr_data" = type { %"class.std::__uniq_ptr_impl" }
%"class.std::__uniq_ptr_impl" = type { %"class.std::tuple" }
%"class.std::tuple" = type { %"struct.std::_Tuple_impl" }
%"struct.std::_Tuple_impl" = type { %"struct.std::_Head_base.1" }
%"struct.std::_Head_base.1" = type { ptr }
%"class.gmx::PhysicalNodeCommunicator" = type { ptr, i32, i32, %"class.std::unique_ptr" }

; Function Attrs: mustprogress uwtable
define void @_ZNK3gmx24PhysicalNodeCommunicator7barrierEv(ptr noundef nonnull align 8 dereferenceable(24) %0) #1 align 2 {
  %2 = alloca ptr, align 8
  store ptr %0, ptr %2, align 8
  %3 = load ptr, ptr %2, align 8
  %4 = getelementptr inbounds %"class.gmx::PhysicalNodeCommunicator", ptr %3, i32 0, i32 1
  %5 = load i32, ptr %4, align 8
  %6 = icmp sgt i32 %5, 1
  br i1 %6, label %7, label %11

7:                                                ; preds = %1
  %8 = getelementptr inbounds %"class.gmx::PhysicalNodeCommunicator", ptr %3, i32 0, i32 0
  %9 = load ptr, ptr %8, align 8
  %10 = call noundef i32 @_Z12tMPI_BarrierP10tmpi_comm_(ptr noundef %9)
  br label %11

11:                                               ; preds = %7, %1
  ret void
}