; Function Attrs: mustprogress uwtable
define void @_ZNK3gmx24PhysicalNodeCommunicator7barrierEv(ptr nocapture noundef nonnull readonly align 8 dereferenceable(24) %0) local_unnamed_addr #1 align 2 {
  %2 = getelementptr inbounds i8, ptr %0, i64 8
  %3 = load i32, ptr %2, align 8
  %4 = icmp sgt i32 %3, 1
  br i1 %4, label %5, label %8

5:                                                ; preds = %1
  %6 = load ptr, ptr %0, align 8
  %7 = tail call noundef i32 @_Z12tMPI_BarrierP10tmpi_comm_(ptr noundef %6)
  br label %8

8:                                                ; preds = %5, %1
  ret void
}